


ARM Macro Assembler    Page 1 


    1 00000000                 AREA             |.text|, CODE, READONLY
    2 00000000         array_zapis
                               PROC                         ; –ù–∞—á–∞–ª–æ —Ñ—É
                                                            –Ω–∫—Ü–∏–∏ array_su
                                                            m_asm
    3 00000000                 EXPORT           array_zapis
    4 00000000 F04F 0100       MOV              R1,#0
    5 00000004         ZAPIS
    6 00000004 4299            CMP              R1,R3
    7 00000006 D004            BEQ              exit
    8 00000008 5845            LDR              R5,[R0,R1]  ; –ó–ê–ü–ò–°–´–í–ê–
                                                            ï–ú –í R5 
    9 0000000A 5055            STR              R5,[R2,R1]
   10 0000000C F101 0104       ADD              R1,#4
   11 00000010 E7F8            B                ZAPIS
   12 00000012         exit
   13 00000012 4770            BX               LR
   14 00000014                 ENDP                         ; –ö–æ–Ω–µ—Ü —Ñ—É–Ω
                                                            –∫—Ü–∏–∏ array_sum_
                                                            asm
   15 00000014         
   16 00000014         array_treatment_asm
                               PROC                         ; –ù–∞—á–∞–ª–æ —Ñ—É
                                                            –Ω–∫—Ü–∏–∏ array_tr
                                                            eatment_asm
   17 00000014                 EXPORT           array_treatment_asm
   18 00000014         ; –§—É–Ω–∫—Ü–∏—è (–ø—Ä–æ—Ü–µ–¥—É—Ä–∞) —Ä–µ–∞–ª–∏–∑—É–µ—Ç
                        –æ–±—Ä–∞–±–æ—Ç–∫—É –º–∞—Å—Å–∏–≤–∞ –≤ —Å–æ–æ—Ç–≤–µ—Ç—Å—Ç
                       –≤–∏–∏ —Å –∑–∞–¥–∞–Ω–∏–µ–º 
   19 00000014         ; –§—É–Ω–∫—Ü–∏—è –ø—Ä–∏–Ω–∏–º–∞–µ—Ç —É–∫–∞–∑–∞—Ç–µ–ª—å –
                       Ω–∞ –º–∞—Å—Å–∏–≤ —á–µ—Ä–µ–∑ —Ä–µ–≥–∏—Å—Ç—Ä R0,
   20 00000014         ; —Ä–∞–∑–º–µ—Ä –º–∞—Å—Å–∏–≤–∞ —á–µ—Ä–µ–∑ —Ä–µ–≥–∏—Å—Ç—Ä 
                       R1,
   21 00000014         ; —É–∫–∞–∑–∞—Ç–µ–ª—å –Ω–∞ –ø—É—Å—Ç–æ–π –º–∞—Å—Å–∏–≤ —á–µ
                       —Ä–µ–∑ —Ä–µ–≥–∏—Å—Ç—Ä R2
   22 00000014         ; R0 = *array
   23 00000014         ; R1 = size(array)
   24 00000014         ; R2 = *new_array 
   25 00000014 F04F 0300       MOV              R3, #0
   26 00000018         VVOD
   27 00000018 428B            CMP              R3,R1       ;R3-i 
   28 0000001A DC05            BGT              EXIT_FUCTION
   29 0000001C 58C5            LDR              R5,[R0,R3]  ; –ó–ê–ü–ò–°–´–í–ê–
                                                            ï–ú –í R5      
   30 0000001E 2D00            CMP              R5,#0
   31 00000020 D002            BEQ              EXIT_FUCTION
   32 00000022 F103 0304       ADD              R3,#4
   33 00000026 E7F7            B                VVOD
   34 00000028         ; –í—ã–∑—ã–≤–∞–µ–º –ø—Ä–æ—Ü–µ–¥—É—Ä—É –≤—ã—á–∏—Å–ª–µ–Ω–∏
                       —è —Å—É–º–º—ã –º–∞—Å—Å–∏–≤–∞
   35 00000028         
   36 00000028         EXIT_FUCTION
   37 00000028 B50F            PUSH             {R0-R3, LR} ; –∑–∞–ø–∏—Å—ã–≤–∞–
                                                            µ–º –≤—Å–µ –Ω–µ–æ–±
                                                            —Ö–æ–¥–∏–º—ã–µ —Ä–µ
                                                            –≥–∏—Å—Ç—Ä—ã –≤ —Å—
                                                            Ç–µ–∫
   38 0000002A F7FF FFFE       BL               array_zapis
   39 0000002E E8BD 400F       POP              {R0-R3, LR}



ARM Macro Assembler    Page 2 


   40 00000032 4770            BX               LR          ; –í–æ–∑–≤—Ä–∞—â–∞–
                                                            µ–º—Å—è –Ω–∞–∑–∞–¥ 
                                                            –ø–æ –∞–¥—Ä–µ—Å—É —
                                                            Ä–∞—Å–ø–æ–ª–æ–∂–µ–Ω
                                                            –Ω–æ–º—É –≤ —Ä–µ–≥–
                                                            ∏—Å—Ç—Ä–µ LR
   41 00000034                 ENDP                         ; –ö–æ–Ω–µ—Ü —Ñ—É–Ω
                                                            –∫—Ü–∏–∏ array_trea
                                                            tment_asm
   42 00000034                 END                          ; –ö–æ–Ω–µ—Ü —Ñ–∞–π
                                                            –ª–∞
Command Line: --debug --xref --diag_suppress=9931 --cpu=Cortex-M3 --apcs=interw
ork --depend=.\objects\main_1.d -o.\objects\main_1.o -IC:\Keil\Keil\STM32F1xx_D
FP\2.3.0\Device\Include --predefine="__EVAL SETA 1" --predefine="__UVISION_VERS
ION SETA 535" --predefine="STM32F10X_MD SETA 1" --list=.\listings\main_1.lst ma
in_1.s



ARM Macro Assembler    Page 1 Alphabetic symbol ordering
Relocatable symbols

.text 00000000

Symbol: .text
   Definitions
      At line 1 in file main_1.s
   Uses
      None
Comment: .text unused
EXIT_FUCTION 00000028

Symbol: EXIT_FUCTION
   Definitions
      At line 36 in file main_1.s
   Uses
      At line 28 in file main_1.s
      At line 31 in file main_1.s

VVOD 00000018

Symbol: VVOD
   Definitions
      At line 26 in file main_1.s
   Uses
      At line 33 in file main_1.s
Comment: VVOD used once
ZAPIS 00000004

Symbol: ZAPIS
   Definitions
      At line 5 in file main_1.s
   Uses
      At line 11 in file main_1.s
Comment: ZAPIS used once
array_treatment_asm 00000014

Symbol: array_treatment_asm
   Definitions
      At line 16 in file main_1.s
   Uses
      At line 17 in file main_1.s
Comment: array_treatment_asm used once
array_zapis 00000000

Symbol: array_zapis
   Definitions
      At line 2 in file main_1.s
   Uses
      At line 3 in file main_1.s
      At line 38 in file main_1.s

exit 00000012

Symbol: exit
   Definitions
      At line 12 in file main_1.s
   Uses
      At line 7 in file main_1.s
Comment: exit used once
7 symbols



ARM Macro Assembler    Page 2 Alphabetic symbol ordering
Relocatable symbols

340 symbols in table
